target datalayout = "e-m:e-p270:32:32-p271:32:32-p272:64:64-i64:64-i128:128-f80:128-n8:16:32:64-S128"
target triple = "x86_64-unknown-linux-gnu"

%"class.icu_75::MessageFormat" = type { %"class.icu_75::Format.base", [6 x i8], %"class.icu_75::Locale", %"class.icu_75::MessagePattern", ptr, i32, ptr, i32, i32, i8, ptr, ptr, ptr, ptr, %"class.icu_75::MessageFormat::PluralSelectorProvider", %"class.icu_75::MessageFormat::PluralSelectorProvider" }
%"class.icu_75::Format.base" = type <{ %"class.icu_75::UObject", [157 x i8], [157 x i8] }>
%"class.icu_75::UObject" = type { ptr }
%"class.icu_75::Locale" = type <{ %"class.icu_75::UObject", [12 x i8], [6 x i8], [4 x i8], [2 x i8], i32, [4 x i8], ptr, [157 x i8], [3 x i8], ptr, i8, [7 x i8] }>
%"class.icu_75::MessagePattern" = type <{ %"class.icu_75::UObject", i32, [4 x i8], %"class.icu_75::UnicodeString", ptr, ptr, i32, [4 x i8], ptr, ptr, i32, i8, i8, i8, i8 }>
%"class.icu_75::UnicodeString" = type { %"class.icu_75::Replaceable", %"union.icu_75::UnicodeString::StackBufferOrFields" }
%"class.icu_75::Replaceable" = type { %"class.icu_75::UObject" }
%"union.icu_75::UnicodeString::StackBufferOrFields" = type { %struct.anon.0, [32 x i8] }
%struct.anon.0 = type { i16, i32, i32, ptr }
%"class.icu_75::MessageFormat::PluralSelectorProvider" = type <{ %"class.icu_75::PluralFormat::PluralSelector", ptr, ptr, i32, [4 x i8] }>
%"class.icu_75::PluralFormat::PluralSelector" = type { ptr }

; Function Attrs: mustprogress uwtable
define void @_ZN6icu_7513MessageFormat12resetPatternEv(ptr noundef nonnull align 8 dereferenceable(816) %this) #1 align 2 {
entry:
  %this.addr = alloca ptr, align 8
  store ptr %this, ptr %this.addr, align 8
  %this1 = load ptr, ptr %this.addr, align 8
  %msgPattern = getelementptr inbounds %"class.icu_75::MessageFormat", ptr %this1, i32 0, i32 3
  call void @_ZN6icu_7514MessagePattern5clearEv(ptr noundef nonnull align 8 dereferenceable(127) %msgPattern)
  %cachedFormatters = getelementptr inbounds %"class.icu_75::MessageFormat", ptr %this1, i32 0, i32 12
  %0 = load ptr, ptr %cachedFormatters, align 8
  call void @uhash_close_75(ptr noundef %0)
  %cachedFormatters2 = getelementptr inbounds %"class.icu_75::MessageFormat", ptr %this1, i32 0, i32 12
  store ptr null, ptr %cachedFormatters2, align 8
  %customFormatArgStarts = getelementptr inbounds %"class.icu_75::MessageFormat", ptr %this1, i32 0, i32 13
  %1 = load ptr, ptr %customFormatArgStarts, align 8
  call void @uhash_close_75(ptr noundef %1)
  %customFormatArgStarts3 = getelementptr inbounds %"class.icu_75::MessageFormat", ptr %this1, i32 0, i32 13
  store ptr null, ptr %customFormatArgStarts3, align 8
  %argTypeCount = getelementptr inbounds %"class.icu_75::MessageFormat", ptr %this1, i32 0, i32 7
  store i32 0, ptr %argTypeCount, align 8
  %hasArgTypeConflicts = getelementptr inbounds %"class.icu_75::MessageFormat", ptr %this1, i32 0, i32 9
  store i8 0, ptr %hasArgTypeConflicts, align 8
  ret void
}

; Function Attrs: mustprogress nounwind uwtable
define internal noundef signext i8 @_ZL9U_FAILURE10UErrorCode(i32 noundef %code) #0 {
entry:
  %code.addr = alloca i32, align 4
  store i32 %code, ptr %code.addr, align 4
  %0 = load i32, ptr %code.addr, align 4
  %cmp = icmp sgt i32 %0, 0
  %conv = zext i1 %cmp to i8
  ret i8 %conv
}

; Function Attrs: mustprogress uwtable
define noundef nonnull align 8 dereferenceable(816) ptr @_ZN6icu_7513MessageFormataSERKS0_(ptr noundef nonnull align 8 dereferenceable(816) %this, ptr noundef nonnull align 8 dereferenceable(816) %that) #1 align 2 {
entry:
  %this.addr = alloca ptr, align 8
  %that.addr = alloca ptr, align 8
  %ec = alloca i32, align 4
  store ptr %this, ptr %this.addr, align 8
  store ptr %that, ptr %that.addr, align 8
  %this1 = load ptr, ptr %this.addr, align 8
  %0 = load ptr, ptr %that.addr, align 8
  %cmp = icmp ne ptr %this1, %0
  br i1 %cmp, label %if.then, label %if.end7

if.then:                                          ; preds = %entry
  %1 = load ptr, ptr %that.addr, align 8
  %call = call noundef nonnull align 8 dereferenceable(322) ptr @_ZN6icu_756FormataSERKS0_(ptr noundef nonnull align 8 dereferenceable(322) %this1, ptr noundef nonnull align 8 dereferenceable(322) %1)
  %2 = load ptr, ptr %that.addr, align 8
  %fLocale = getelementptr inbounds %"class.icu_75::MessageFormat", ptr %2, i32 0, i32 2
  %vtable = load ptr, ptr %this1, align 8
  %vfn = getelementptr inbounds ptr, ptr %vtable, i64 8
  %3 = load ptr, ptr %vfn, align 8
  call void %3(ptr noundef nonnull align 8 dereferenceable(816) %this1, ptr noundef nonnull align 8 dereferenceable(217) %fLocale)
  %4 = load ptr, ptr %that.addr, align 8
  %msgPattern = getelementptr inbounds %"class.icu_75::MessageFormat", ptr %4, i32 0, i32 3
  %msgPattern2 = getelementptr inbounds %"class.icu_75::MessageFormat", ptr %this1, i32 0, i32 3
  %call3 = call noundef nonnull align 8 dereferenceable(127) ptr @_ZN6icu_7514MessagePatternaSERKS0_(ptr noundef nonnull align 8 dereferenceable(127) %msgPattern2, ptr noundef nonnull align 8 dereferenceable(127) %msgPattern)
  %5 = load ptr, ptr %that.addr, align 8
  %hasArgTypeConflicts = getelementptr inbounds %"class.icu_75::MessageFormat", ptr %5, i32 0, i32 9
  %6 = load i8, ptr %hasArgTypeConflicts, align 8
  %hasArgTypeConflicts4 = getelementptr inbounds %"class.icu_75::MessageFormat", ptr %this1, i32 0, i32 9
  store i8 %6, ptr %hasArgTypeConflicts4, align 8
  store i32 0, ptr %ec, align 4
  %7 = load ptr, ptr %that.addr, align 8
  call void @_ZN6icu_7513MessageFormat11copyObjectsERKS0_R10UErrorCode(ptr noundef nonnull align 8 dereferenceable(816) %this1, ptr noundef nonnull align 8 dereferenceable(816) %7, ptr noundef nonnull align 4 dereferenceable(4) %ec)
  %8 = load i32, ptr %ec, align 4
  %call5 = call noundef signext i8 @_ZL9U_FAILURE10UErrorCode(i32 noundef %8)
  %tobool = icmp ne i8 %call5, 0
  br i1 %tobool, label %if.then6, label %if.end

if.then6:                                         ; preds = %if.then
  call void @_ZN6icu_7513MessageFormat12resetPatternEv(ptr noundef nonnull align 8 dereferenceable(816) %this1)
  br label %if.end

if.end:                                           ; preds = %if.then6, %if.then
  br label %if.end7

if.end7:                                          ; preds = %if.end, %entry
  ret ptr %this1
}