; Function Attrs: mustprogress uwtable
define noundef nonnull align 8 dereferenceable(816) ptr @_ZN6icu_7513MessageFormataSERKS0_(ptr noundef nonnull returned align 8 dereferenceable(816) %this, ptr noundef nonnull align 8 dereferenceable(816) %that) local_unnamed_addr #1 align 2 {
entry:
  %ec = alloca i32, align 4
  %cmp.not = icmp eq ptr %this, %that
  br i1 %cmp.not, label %if.end7, label %if.then

if.then:                                          ; preds = %entry
  %call = tail call noundef nonnull align 8 dereferenceable(322) ptr @_ZN6icu_756FormataSERKS0_(ptr noundef nonnull align 8 dereferenceable(322) %this, ptr noundef nonnull align 8 dereferenceable(322) %that)
  %fLocale = getelementptr inbounds i8, ptr %that, i64 328
  %vtable = load ptr, ptr %this, align 8
  %vfn = getelementptr inbounds i8, ptr %vtable, i64 64
  %0 = load ptr, ptr %vfn, align 8
  tail call void %0(ptr noundef nonnull align 8 dereferenceable(816) %this, ptr noundef nonnull align 8 dereferenceable(217) %fLocale)
  %msgPattern = getelementptr inbounds i8, ptr %that, i64 552
  %msgPattern2 = getelementptr inbounds i8, ptr %this, i64 552
  %call3 = tail call noundef nonnull align 8 dereferenceable(127) ptr @_ZN6icu_7514MessagePatternaSERKS0_(ptr noundef nonnull align 8 dereferenceable(127) %msgPattern2, ptr noundef nonnull align 8 dereferenceable(127) %msgPattern)
  %hasArgTypeConflicts = getelementptr inbounds i8, ptr %that, i64 712
  %1 = load i8, ptr %hasArgTypeConflicts, align 8
  %hasArgTypeConflicts4 = getelementptr inbounds i8, ptr %this, i64 712
  store i8 %1, ptr %hasArgTypeConflicts4, align 8
  store i32 0, ptr %ec, align 4
  call void @_ZN6icu_7513MessageFormat11copyObjectsERKS0_R10UErrorCode(ptr noundef nonnull align 8 dereferenceable(816) %this, ptr noundef nonnull align 8 dereferenceable(816) %that, ptr noundef nonnull align 4 dereferenceable(4) %ec)
  %2 = load i32, ptr %ec, align 4
  %cmp.i = icmp slt i32 %2, 1
  br i1 %cmp.i, label %if.end7, label %if.then6

if.then6:                                         ; preds = %if.then
  call void @_ZN6icu_7514MessagePattern5clearEv(ptr noundef nonnull align 8 dereferenceable(127) %msgPattern2)
  %cachedFormatters.i = getelementptr inbounds i8, ptr %this, i64 736
  %3 = load ptr, ptr %cachedFormatters.i, align 8
  call void @uhash_close_75(ptr noundef %3)
  store ptr null, ptr %cachedFormatters.i, align 8
  %customFormatArgStarts.i = getelementptr inbounds i8, ptr %this, i64 744
  %4 = load ptr, ptr %customFormatArgStarts.i, align 8
  call void @uhash_close_75(ptr noundef %4)
  store ptr null, ptr %customFormatArgStarts.i, align 8
  %argTypeCount.i = getelementptr inbounds i8, ptr %this, i64 704
  store i32 0, ptr %argTypeCount.i, align 8
  store i8 0, ptr %hasArgTypeConflicts4, align 8
  br label %if.end7

if.end7:                                          ; preds = %if.then, %if.then6, %entry
  ret ptr %this
}